target datalayout = "e-m:e-p270:32:32-p271:32:32-p272:64:64-i64:64-i128:128-f80:128-n8:16:32:64-S128"
target triple = "x86_64-pc-linux-gnu"

%struct.hwloc_infos_s = type { ptr, i32, i32 }
%struct.hwloc_obj = type { i32, ptr, i32, ptr, i64, ptr, i32, i32, ptr, ptr, ptr, i32, ptr, ptr, i32, ptr, ptr, ptr, i32, i32, ptr, i32, ptr, i32, ptr, ptr, ptr, ptr, ptr, %struct.hwloc_infos_s, ptr, i64 }
%struct.hwloc_utils_userdata = type { ptr, i64, ptr, ptr }

; Function Attrs: inlinehint nounwind uwtable
define internal void @hwloc_utils_userdata_free(ptr noundef %0) #4 {
  %2 = alloca ptr, align 8
  %3 = alloca ptr, align 8
  %4 = alloca ptr, align 8
  store ptr %0, ptr %2, align 8, !tbaa !35
  call void @llvm.lifetime.start.p0(i64 8, ptr %3) #11
  %5 = load ptr, ptr %2, align 8, !tbaa !35
  %6 = getelementptr inbounds nuw %struct.hwloc_obj, ptr %5, i32 0, i32 30
  %7 = load ptr, ptr %6, align 8, !tbaa !57
  store ptr %7, ptr %3, align 8, !tbaa !49
  call void @llvm.lifetime.start.p0(i64 8, ptr %4) #11
  br label %8

8:                                                ; preds = %11, %1
  %9 = load ptr, ptr %3, align 8, !tbaa !49
  %10 = icmp ne ptr %9, null
  br i1 %10, label %11, label %23

11:                                               ; preds = %8
  %12 = load ptr, ptr %3, align 8, !tbaa !49
  %13 = getelementptr inbounds nuw %struct.hwloc_utils_userdata, ptr %12, i32 0, i32 3
  %14 = load ptr, ptr %13, align 8, !tbaa !56
  store ptr %14, ptr %4, align 8, !tbaa !49
  %15 = load ptr, ptr %3, align 8, !tbaa !49
  %16 = getelementptr inbounds nuw %struct.hwloc_utils_userdata, ptr %15, i32 0, i32 0
  %17 = load ptr, ptr %16, align 8, !tbaa !52
  call void @free(ptr noundef %17) #11
  %18 = load ptr, ptr %3, align 8, !tbaa !49
  %19 = getelementptr inbounds nuw %struct.hwloc_utils_userdata, ptr %18, i32 0, i32 2
  %20 = load ptr, ptr %19, align 8, !tbaa !55
  call void @free(ptr noundef %20) #11
  %21 = load ptr, ptr %3, align 8, !tbaa !49
  call void @free(ptr noundef %21) #11
  %22 = load ptr, ptr %4, align 8, !tbaa !49
  store ptr %22, ptr %3, align 8, !tbaa !49
  br label %8, !llvm.loop !115

23:                                               ; preds = %8
  %24 = load ptr, ptr %2, align 8, !tbaa !35
  %25 = getelementptr inbounds nuw %struct.hwloc_obj, ptr %24, i32 0, i32 30
  store ptr null, ptr %25, align 8, !tbaa !57
  call void @llvm.lifetime.end.p0(i64 8, ptr %4) #11
  call void @llvm.lifetime.end.p0(i64 8, ptr %3) #11
  ret void
}

; Function Attrs: inlinehint nounwind uwtable
define internal void @hwloc_utils_userdata_free_recursive(ptr noundef %0) #4 {
  %2 = alloca ptr, align 8
  %3 = alloca ptr, align 8
  store ptr %0, ptr %2, align 8, !tbaa !35
  call void @llvm.lifetime.start.p0(i64 8, ptr %3) #11
  %4 = load ptr, ptr %2, align 8, !tbaa !35
  call void @hwloc_utils_userdata_free(ptr noundef %4)
  %5 = load ptr, ptr %2, align 8, !tbaa !35
  %6 = getelementptr inbounds nuw %struct.hwloc_obj, ptr %5, i32 0, i32 16
  %7 = load ptr, ptr %6, align 8, !tbaa !97
  store ptr %7, ptr %3, align 8, !tbaa !35
  br label %8

8:                                                ; preds = %13, %1
  %9 = load ptr, ptr %3, align 8, !tbaa !35
  %10 = icmp ne ptr %9, null
  br i1 %10, label %11, label %17

11:                                               ; preds = %8
  %12 = load ptr, ptr %3, align 8, !tbaa !35
  call void @hwloc_utils_userdata_free_recursive(ptr noundef %12)
  br label %13

13:                                               ; preds = %11
  %14 = load ptr, ptr %3, align 8, !tbaa !35
  %15 = getelementptr inbounds nuw %struct.hwloc_obj, ptr %14, i32 0, i32 12
  %16 = load ptr, ptr %15, align 8, !tbaa !98
  store ptr %16, ptr %3, align 8, !tbaa !35
  br label %8, !llvm.loop !99

17:                                               ; preds = %8
  %18 = load ptr, ptr %2, align 8, !tbaa !35
  %19 = getelementptr inbounds nuw %struct.hwloc_obj, ptr %18, i32 0, i32 20
  %20 = load ptr, ptr %19, align 8, !tbaa !100
  store ptr %20, ptr %3, align 8, !tbaa !35
  br label %21

21:                                               ; preds = %26, %17
  %22 = load ptr, ptr %3, align 8, !tbaa !35
  %23 = icmp ne ptr %22, null
  br i1 %23, label %24, label %30

24:                                               ; preds = %21
  %25 = load ptr, ptr %3, align 8, !tbaa !35
  call void @hwloc_utils_userdata_free_recursive(ptr noundef %25)
  br label %26

26:                                               ; preds = %24
  %27 = load ptr, ptr %3, align 8, !tbaa !35
  %28 = getelementptr inbounds nuw %struct.hwloc_obj, ptr %27, i32 0, i32 12
  %29 = load ptr, ptr %28, align 8, !tbaa !98
  store ptr %29, ptr %3, align 8, !tbaa !35
  br label %21, !llvm.loop !101

30:                                               ; preds = %21
  %31 = load ptr, ptr %2, align 8, !tbaa !35
  %32 = getelementptr inbounds nuw %struct.hwloc_obj, ptr %31, i32 0, i32 22
  %33 = load ptr, ptr %32, align 8, !tbaa !102
  store ptr %33, ptr %3, align 8, !tbaa !35
  br label %34

34:                                               ; preds = %39, %30
  %35 = load ptr, ptr %3, align 8, !tbaa !35
  %36 = icmp ne ptr %35, null
  br i1 %36, label %37, label %43

37:                                               ; preds = %34
  %38 = load ptr, ptr %3, align 8, !tbaa !35
  call void @hwloc_utils_userdata_free_recursive(ptr noundef %38)
  br label %39

39:                                               ; preds = %37
  %40 = load ptr, ptr %3, align 8, !tbaa !35
  %41 = getelementptr inbounds nuw %struct.hwloc_obj, ptr %40, i32 0, i32 12
  %42 = load ptr, ptr %41, align 8, !tbaa !98
  store ptr %42, ptr %3, align 8, !tbaa !35
  br label %34, !llvm.loop !103

43:                                               ; preds = %34
  %44 = load ptr, ptr %2, align 8, !tbaa !35
  %45 = getelementptr inbounds nuw %struct.hwloc_obj, ptr %44, i32 0, i32 24
  %46 = load ptr, ptr %45, align 8, !tbaa !104
  store ptr %46, ptr %3, align 8, !tbaa !35
  br label %47

47:                                               ; preds = %52, %43
  %48 = load ptr, ptr %3, align 8, !tbaa !35
  %49 = icmp ne ptr %48, null
  br i1 %49, label %50, label %56

50:                                               ; preds = %47
  %51 = load ptr, ptr %3, align 8, !tbaa !35
  call void @hwloc_utils_userdata_free_recursive(ptr noundef %51)
  br label %52

52:                                               ; preds = %50
  %53 = load ptr, ptr %3, align 8, !tbaa !35
  %54 = getelementptr inbounds nuw %struct.hwloc_obj, ptr %53, i32 0, i32 12
  %55 = load ptr, ptr %54, align 8, !tbaa !98
  store ptr %55, ptr %3, align 8, !tbaa !35
  br label %47, !llvm.loop !105

56:                                               ; preds = %47
  call void @llvm.lifetime.end.p0(i64 8, ptr %3) #11
  ret void
}