; Function Attrs: inlinehint nounwind uwtable
define internal fastcc void @hwloc_utils_userdata_free_recursive(ptr noundef captures(none) %0) unnamed_addr #12 {
  %2 = getelementptr inbounds nuw i8, ptr %0, i64 232
  %3 = load ptr, ptr %2, align 8, !tbaa !77
  %.not8.i = icmp eq ptr %3, null
  br i1 %.not8.i, label %hwloc_utils_userdata_free.exit, label %.lr.ph.i

.lr.ph.i:                                         ; preds = %1, %.lr.ph.i
  %.09.i = phi ptr [ %5, %.lr.ph.i ], [ %3, %1 ]
  %4 = getelementptr inbounds nuw i8, ptr %.09.i, i64 24
  %5 = load ptr, ptr %4, align 8, !tbaa !51
  %6 = load ptr, ptr %.09.i, align 8, !tbaa !47
  tail call void @free(ptr noundef %6) #27
  %7 = getelementptr inbounds nuw i8, ptr %.09.i, i64 16
  %8 = load ptr, ptr %7, align 8, !tbaa !50
  tail call void @free(ptr noundef %8) #27
  tail call void @free(ptr noundef nonnull %.09.i) #27
  %.not.i = icmp eq ptr %5, null
  br i1 %.not.i, label %hwloc_utils_userdata_free.exit, label %.lr.ph.i, !llvm.loop !78

hwloc_utils_userdata_free.exit:                   ; preds = %.lr.ph.i, %1
  store ptr null, ptr %2, align 8, !tbaa !77
  %9 = getelementptr inbounds nuw i8, ptr %0, i64 120
  %.020 = load ptr, ptr %9, align 8, !tbaa !33
  %.not21 = icmp eq ptr %.020, null
  br i1 %.not21, label %._crit_edge, label %.lr.ph

.lr.ph:                                           ; preds = %hwloc_utils_userdata_free.exit, %.lr.ph
  %.022 = phi ptr [ %.0, %.lr.ph ], [ %.020, %hwloc_utils_userdata_free.exit ]
  tail call fastcc void @hwloc_utils_userdata_free_recursive(ptr noundef nonnull %.022)
  %10 = getelementptr inbounds nuw i8, ptr %.022, i64 88
  %.0 = load ptr, ptr %10, align 8, !tbaa !33
  %.not = icmp eq ptr %.0, null
  br i1 %.not, label %._crit_edge, label %.lr.ph, !llvm.loop !92

._crit_edge:                                      ; preds = %.lr.ph, %hwloc_utils_userdata_free.exit
  %11 = getelementptr inbounds nuw i8, ptr %0, i64 144
  %.123 = load ptr, ptr %11, align 8, !tbaa !33
  %.not1724 = icmp eq ptr %.123, null
  br i1 %.not1724, label %._crit_edge28, label %.lr.ph27

.lr.ph27:                                         ; preds = %._crit_edge, %.lr.ph27
  %.125 = phi ptr [ %.1, %.lr.ph27 ], [ %.123, %._crit_edge ]
  tail call fastcc void @hwloc_utils_userdata_free_recursive(ptr noundef nonnull %.125)
  %12 = getelementptr inbounds nuw i8, ptr %.125, i64 88
  %.1 = load ptr, ptr %12, align 8, !tbaa !33
  %.not17 = icmp eq ptr %.1, null
  br i1 %.not17, label %._crit_edge28, label %.lr.ph27, !llvm.loop !93

._crit_edge28:                                    ; preds = %.lr.ph27, %._crit_edge
  %13 = getelementptr inbounds nuw i8, ptr %0, i64 160
  %.229 = load ptr, ptr %13, align 8, !tbaa !33
  %.not1830 = icmp eq ptr %.229, null
  br i1 %.not1830, label %._crit_edge34, label %.lr.ph33

.lr.ph33:                                         ; preds = %._crit_edge28, %.lr.ph33
  %.231 = phi ptr [ %.2, %.lr.ph33 ], [ %.229, %._crit_edge28 ]
  tail call fastcc void @hwloc_utils_userdata_free_recursive(ptr noundef nonnull %.231)
  %14 = getelementptr inbounds nuw i8, ptr %.231, i64 88
  %.2 = load ptr, ptr %14, align 8, !tbaa !33
  %.not18 = icmp eq ptr %.2, null
  br i1 %.not18, label %._crit_edge34, label %.lr.ph33, !llvm.loop !94

._crit_edge34:                                    ; preds = %.lr.ph33, %._crit_edge28
  %15 = getelementptr inbounds nuw i8, ptr %0, i64 176
  %.335 = load ptr, ptr %15, align 8, !tbaa !33
  %.not1936 = icmp eq ptr %.335, null
  br i1 %.not1936, label %._crit_edge40, label %.lr.ph39

.lr.ph39:                                         ; preds = %._crit_edge34, %.lr.ph39
  %.337 = phi ptr [ %.3, %.lr.ph39 ], [ %.335, %._crit_edge34 ]
  tail call fastcc void @hwloc_utils_userdata_free_recursive(ptr noundef nonnull %.337)
  %16 = getelementptr inbounds nuw i8, ptr %.337, i64 88
  %.3 = load ptr, ptr %16, align 8, !tbaa !33
  %.not19 = icmp eq ptr %.3, null
  br i1 %.not19, label %._crit_edge40, label %.lr.ph39, !llvm.loop !95

._crit_edge40:                                    ; preds = %.lr.ph39, %._crit_edge34
  ret void
}